target datalayout = "e-m:e-p270:32:32-p271:32:32-p272:64:64-i64:64-i128:128-f80:128-n8:16:32:64-S128"
target triple = "x86_64-pc-linux-gnu"

%struct.ident_t = type { i32, i32, i32, i32, ptr }
%"struct.faiss::HNSW" = type <{ %"class.std::vector", %"class.std::vector.0", %"class.std::vector.0", %"class.std::vector.5", %"class.std::vector.0", i32, [4 x i8], %"struct.faiss::RandomGenerator", i32, i32, i32, i8, i8, [2 x i8] }>
%"class.std::vector" = type { %"struct.std::_Vector_base" }
%"struct.std::_Vector_base" = type { %"struct.std::_Vector_base<double, std::allocator<double>>::_Vector_impl" }
%"struct.std::_Vector_base<double, std::allocator<double>>::_Vector_impl" = type { %"struct.std::_Vector_base<double, std::allocator<double>>::_Vector_impl_data" }
%"struct.std::_Vector_base<double, std::allocator<double>>::_Vector_impl_data" = type { ptr, ptr, ptr }
%"class.std::vector.5" = type { %"struct.std::_Vector_base.6" }
%"struct.std::_Vector_base.6" = type { %"struct.std::_Vector_base<unsigned long, std::allocator<unsigned long>>::_Vector_impl" }
%"struct.std::_Vector_base<unsigned long, std::allocator<unsigned long>>::_Vector_impl" = type { %"struct.std::_Vector_base<unsigned long, std::allocator<unsigned long>>::_Vector_impl_data" }
%"struct.std::_Vector_base<unsigned long, std::allocator<unsigned long>>::_Vector_impl_data" = type { ptr, ptr, ptr }
%"class.std::vector.0" = type { %"struct.std::_Vector_base.1" }
%"struct.std::_Vector_base.1" = type { %"struct.std::_Vector_base<int, std::allocator<int>>::_Vector_impl" }
%"struct.std::_Vector_base<int, std::allocator<int>>::_Vector_impl" = type { %"struct.std::_Vector_base<int, std::allocator<int>>::_Vector_impl_data" }
%"struct.std::_Vector_base<int, std::allocator<int>>::_Vector_impl_data" = type { ptr, ptr, ptr }
%"struct.faiss::RandomGenerator" = type { %"class.std::mersenne_twister_engine" }
%"class.std::mersenne_twister_engine" = type { [624 x i64], i64 }
%struct.omp_lock_t = type { ptr }
%"struct.faiss::HNSWStats" = type { i64, i64, i64, i64 }
%"struct.std::_Vector_base.52" = type { %"struct.std::_Vector_base<omp_lock_t, std::allocator<omp_lock_t>>::_Vector_impl" }
%"struct.std::_Vector_base<omp_lock_t, std::allocator<omp_lock_t>>::_Vector_impl" = type { %"struct.std::_Vector_base<omp_lock_t, std::allocator<omp_lock_t>>::_Vector_impl_data" }
%"struct.std::_Vector_base<omp_lock_t, std::allocator<omp_lock_t>>::_Vector_impl_data" = type { ptr, ptr, ptr }

@3 = private unnamed_addr constant %struct.ident_t { i32 0, i32 2, i32 0, i32 22, ptr @0 }, align 8
@.gomp_critical_user_.var = common global [8 x i32] zeroinitializer, align 8

; Function Attrs: mustprogress nounwind uwtable
define linkonce_odr noundef ptr @_ZNKSt6vectorI10omp_lock_tSaIS0_EE11_M_data_ptrIS0_EEPT_S5_(ptr noundef nonnull align 8 dereferenceable(24) %0, ptr noundef %1) #5 comdat align 2 {
  %3 = alloca ptr, align 8
  %4 = alloca ptr, align 8
  store ptr %0, ptr %3, align 8, !tbaa !377
  store ptr %1, ptr %4, align 8, !tbaa !365
  %5 = load ptr, ptr %4, align 8, !tbaa !365
  ret ptr %5
}

; Function Attrs: mustprogress nounwind uwtable
define linkonce_odr noundef ptr @_ZNSt6vectorI10omp_lock_tSaIS0_EE4dataEv(ptr noundef nonnull align 8 dereferenceable(24) %0) #5 comdat align 2 {
  %2 = alloca ptr, align 8
  store ptr %0, ptr %2, align 8, !tbaa !377
  %3 = load ptr, ptr %2, align 8
  %4 = getelementptr inbounds nuw %"struct.std::_Vector_base.52", ptr %3, i32 0, i32 0
  %5 = getelementptr inbounds nuw %"struct.std::_Vector_base<omp_lock_t, std::allocator<omp_lock_t>>::_Vector_impl_data", ptr %4, i32 0, i32 0
  %6 = load ptr, ptr %5, align 8, !tbaa !381
  %7 = call noundef ptr @_ZNKSt6vectorI10omp_lock_tSaIS0_EE11_M_data_ptrIS0_EEPT_S5_(ptr noundef nonnull align 8 dereferenceable(24) %3, ptr noundef %6) #3
  ret ptr %7
}

; Function Attrs: mustprogress nounwind uwtable
define linkonce_odr noundef nonnull align 8 dereferenceable(8) ptr @_ZNSt6vectorI10omp_lock_tSaIS0_EEixEm(ptr noundef nonnull align 8 dereferenceable(24) %0, i64 noundef %1) #5 comdat align 2 {
  %3 = alloca ptr, align 8
  %4 = alloca i64, align 8
  store ptr %0, ptr %3, align 8, !tbaa !377
  store i64 %1, ptr %4, align 8, !tbaa !19
  %5 = load ptr, ptr %3, align 8
  %6 = getelementptr inbounds nuw %"struct.std::_Vector_base.52", ptr %5, i32 0, i32 0
  %7 = getelementptr inbounds nuw %"struct.std::_Vector_base<omp_lock_t, std::allocator<omp_lock_t>>::_Vector_impl_data", ptr %6, i32 0, i32 0
  %8 = load ptr, ptr %7, align 8, !tbaa !381
  %9 = load i64, ptr %4, align 8, !tbaa !19
  %10 = getelementptr inbounds nuw %struct.omp_lock_t, ptr %8, i64 %9
  ret ptr %10
}

; Function Attrs: mustprogress uwtable
define void @_ZN5faiss4HNSW14add_with_locksERNS_16DistanceComputerEiiRSt6vectorI10omp_lock_tSaIS4_EERNS_12VisitedTableEb(ptr noundef nonnull align 8 dereferenceable(5142) %0, ptr noundef nonnull align 8 dereferenceable(8) %1, i32 noundef %2, i32 noundef %3, ptr noundef nonnull align 8 dereferenceable(24) %4, ptr noundef nonnull align 8 dereferenceable(25) %5, i1 noundef zeroext %6) #4 align 2 {
  %8 = alloca ptr, align 8
  %9 = alloca ptr, align 8
  %10 = alloca i32, align 4
  %11 = alloca i32, align 4
  %12 = alloca ptr, align 8
  %13 = alloca ptr, align 8
  %14 = alloca i8, align 1
  %15 = alloca i32, align 4
  %16 = alloca i32, align 4
  %17 = alloca i32, align 4
  %18 = alloca float, align 4
  %19 = alloca %"struct.faiss::HNSWStats", align 8
  %20 = call i32 @__kmpc_global_thread_num(ptr @3)
  store ptr %0, ptr %8, align 8, !tbaa !4
  store ptr %1, ptr %9, align 8, !tbaa !255
  store i32 %2, ptr %10, align 4, !tbaa !9
  store i32 %3, ptr %11, align 4, !tbaa !9
  store ptr %4, ptr %12, align 8, !tbaa !377
  store ptr %5, ptr %13, align 8, !tbaa !305
  %21 = zext i1 %6 to i8
  store i8 %21, ptr %14, align 1, !tbaa !180
  %22 = load ptr, ptr %8, align 8
  call void @llvm.lifetime.start.p0(i64 4, ptr %15) #3
  call void @__kmpc_critical(ptr @3, i32 %20, ptr @.gomp_critical_user_.var)
  %23 = getelementptr inbounds nuw %"struct.faiss::HNSW", ptr %22, i32 0, i32 5
  %24 = load i32, ptr %23, align 8, !tbaa !47
  store i32 %24, ptr %15, align 4, !tbaa !9
  %25 = load i32, ptr %15, align 4, !tbaa !9
  %26 = icmp eq i32 %25, -1
  br i1 %26, label %27, label %32

27:                                               ; preds = %7
  %28 = load i32, ptr %10, align 4, !tbaa !9
  %29 = getelementptr inbounds nuw %"struct.faiss::HNSW", ptr %22, i32 0, i32 8
  store i32 %28, ptr %29, align 8, !tbaa !63
  %30 = load i32, ptr %11, align 4, !tbaa !9
  %31 = getelementptr inbounds nuw %"struct.faiss::HNSW", ptr %22, i32 0, i32 5
  store i32 %30, ptr %31, align 8, !tbaa !47
  br label %32

32:                                               ; preds = %27, %7
  call void @__kmpc_end_critical(ptr @3, i32 %20, ptr @.gomp_critical_user_.var)
  %33 = load i32, ptr %15, align 4, !tbaa !9
  %34 = icmp slt i32 %33, 0
  br i1 %34, label %35, label %36

35:                                               ; preds = %32
  store i32 1, ptr %16, align 4
  br label %93

36:                                               ; preds = %32
  %37 = load ptr, ptr %12, align 8, !tbaa !377
  %38 = load i32, ptr %11, align 4, !tbaa !9
  %39 = sext i32 %38 to i64
  %40 = call noundef nonnull align 8 dereferenceable(8) ptr @_ZNSt6vectorI10omp_lock_tSaIS0_EEixEm(ptr noundef nonnull align 8 dereferenceable(24) %37, i64 noundef %39) #3
  call void @omp_set_lock(ptr noundef %40)
  call void @llvm.lifetime.start.p0(i64 4, ptr %17) #3
  %41 = getelementptr inbounds nuw %"struct.faiss::HNSW", ptr %22, i32 0, i32 8
  %42 = load i32, ptr %41, align 8, !tbaa !63
  store i32 %42, ptr %17, align 4, !tbaa !9
  call void @llvm.lifetime.start.p0(i64 4, ptr %18) #3
  %43 = load ptr, ptr %9, align 8, !tbaa !255
  %44 = load i32, ptr %15, align 4, !tbaa !9
  %45 = sext i32 %44 to i64
  %46 = load ptr, ptr %43, align 8, !tbaa !27
  %47 = getelementptr inbounds ptr, ptr %46, i64 1
  %48 = load ptr, ptr %47, align 8
  %49 = call noundef float %48(ptr noundef nonnull align 8 dereferenceable(8) %43, i64 noundef %45)
  store float %49, ptr %18, align 4, !tbaa !70
  br label %50

50:                                               ; preds = %57, %36
  %51 = load i32, ptr %17, align 4, !tbaa !9
  %52 = load i32, ptr %10, align 4, !tbaa !9
  %53 = icmp sgt i32 %51, %52
  br i1 %53, label %54, label %60

54:                                               ; preds = %50
  %55 = load ptr, ptr %9, align 8, !tbaa !255
  %56 = load i32, ptr %17, align 4, !tbaa !9
  call void @llvm.lifetime.start.p0(i64 32, ptr %19) #3
  call void @_ZN5faiss21greedy_update_nearestERKNS_4HNSWERNS_16DistanceComputerEiRiRf(ptr dead_on_unwind writable sret(%"struct.faiss::HNSWStats") align 8 %19, ptr noundef nonnull align 8 dereferenceable(5142) %22, ptr noundef nonnull align 8 dereferenceable(8) %55, i32 noundef %56, ptr noundef nonnull align 4 dereferenceable(4) %15, ptr noundef nonnull align 4 dereferenceable(4) %18)
  call void @llvm.lifetime.end.p0(i64 32, ptr %19) #3
  br label %57

57:                                               ; preds = %54
  %58 = load i32, ptr %17, align 4, !tbaa !9
  %59 = add nsw i32 %58, -1
  store i32 %59, ptr %17, align 4, !tbaa !9
  br label %50, !llvm.loop !379

60:                                               ; preds = %50
  br label %61

61:                                               ; preds = %75, %60
  %62 = load i32, ptr %17, align 4, !tbaa !9
  %63 = icmp sge i32 %62, 0
  br i1 %63, label %64, label %78

64:                                               ; preds = %61
  %65 = load ptr, ptr %9, align 8, !tbaa !255
  %66 = load i32, ptr %11, align 4, !tbaa !9
  %67 = load i32, ptr %15, align 4, !tbaa !9
  %68 = load float, ptr %18, align 4, !tbaa !70
  %69 = load i32, ptr %17, align 4, !tbaa !9
  %70 = load ptr, ptr %12, align 8, !tbaa !377
  %71 = call noundef ptr @_ZNSt6vectorI10omp_lock_tSaIS0_EE4dataEv(ptr noundef nonnull align 8 dereferenceable(24) %70) #3
  %72 = load ptr, ptr %13, align 8, !tbaa !305
  %73 = load i8, ptr %14, align 1, !tbaa !180, !range !197, !noundef !198
  %74 = trunc i8 %73 to i1
  call void @_ZN5faiss4HNSW23add_links_starting_fromERNS_16DistanceComputerEiifiP10omp_lock_tRNS_12VisitedTableEb(ptr noundef nonnull align 8 dereferenceable(5142) %22, ptr noundef nonnull align 8 dereferenceable(8) %65, i32 noundef %66, i32 noundef %67, float noundef %68, i32 noundef %69, ptr noundef %71, ptr noundef nonnull align 8 dereferenceable(25) %72, i1 noundef zeroext %74)
  br label %75

75:                                               ; preds = %64
  %76 = load i32, ptr %17, align 4, !tbaa !9
  %77 = add nsw i32 %76, -1
  store i32 %77, ptr %17, align 4, !tbaa !9
  br label %61, !llvm.loop !380

78:                                               ; preds = %61
  %79 = load ptr, ptr %12, align 8, !tbaa !377
  %80 = load i32, ptr %11, align 4, !tbaa !9
  %81 = sext i32 %80 to i64
  %82 = call noundef nonnull align 8 dereferenceable(8) ptr @_ZNSt6vectorI10omp_lock_tSaIS0_EEixEm(ptr noundef nonnull align 8 dereferenceable(24) %79, i64 noundef %81) #3
  call void @omp_unset_lock(ptr noundef %82)
  %83 = load i32, ptr %10, align 4, !tbaa !9
  %84 = getelementptr inbounds nuw %"struct.faiss::HNSW", ptr %22, i32 0, i32 8
  %85 = load i32, ptr %84, align 8, !tbaa !63
  %86 = icmp sgt i32 %83, %85
  br i1 %86, label %87, label %92

87:                                               ; preds = %78
  %88 = load i32, ptr %10, align 4, !tbaa !9
  %89 = getelementptr inbounds nuw %"struct.faiss::HNSW", ptr %22, i32 0, i32 8
  store i32 %88, ptr %89, align 8, !tbaa !63
  %90 = load i32, ptr %11, align 4, !tbaa !9
  %91 = getelementptr inbounds nuw %"struct.faiss::HNSW", ptr %22, i32 0, i32 5
  store i32 %90, ptr %91, align 8, !tbaa !47
  br label %92

92:                                               ; preds = %87, %78
  call void @llvm.lifetime.end.p0(i64 4, ptr %18) #3
  call void @llvm.lifetime.end.p0(i64 4, ptr %17) #3
  store i32 0, ptr %16, align 4
  br label %93

93:                                               ; preds = %92, %35
  call void @llvm.lifetime.end.p0(i64 4, ptr %15) #3
  %94 = load i32, ptr %16, align 4
  switch i32 %94, label %96 [
    i32 0, label %95
    i32 1, label %95
  ]

95:                                               ; preds = %93, %93
  ret void

96:                                               ; preds = %93
  unreachable
}