; Function Attrs: mustprogress uwtable
define void @_ZN5faiss4HNSW14add_with_locksERNS_16DistanceComputerEiiRSt6vectorI10omp_lock_tSaIS4_EERNS_12VisitedTableEb(ptr noundef nonnull align 8 captures(none) dereferenceable(5142) %0, ptr noundef nonnull align 8 dereferenceable(8) %1, i32 noundef %2, i32 noundef %3, ptr noundef nonnull readonly align 8 captures(none) dereferenceable(24) %4, ptr noundef nonnull align 8 captures(none) dereferenceable(25) %5, i1 noundef zeroext %6) local_unnamed_addr #3 align 2 {
  %8 = alloca i32, align 4
  %9 = alloca float, align 4
  %10 = alloca %"struct.faiss::HNSWStats", align 8
  %11 = tail call i32 @__kmpc_global_thread_num(ptr nonnull @3)
  call void @llvm.lifetime.start.p0(i64 4, ptr nonnull %8) #19
  tail call void @__kmpc_critical(ptr nonnull @3, i32 %11, ptr nonnull @.gomp_critical_user_.var)
  %12 = getelementptr inbounds nuw i8, ptr %0, i64 120
  %13 = load i32, ptr %12, align 8, !tbaa !29
  store i32 %13, ptr %8, align 4, !tbaa !19
  %14 = icmp eq i32 %13, -1
  br i1 %14, label %15, label %17

15:                                               ; preds = %7
  %16 = getelementptr inbounds nuw i8, ptr %0, i64 5128
  store i32 %2, ptr %16, align 8, !tbaa !45
  store i32 %3, ptr %12, align 8, !tbaa !29
  br label %17

17:                                               ; preds = %15, %7
  tail call void @__kmpc_end_critical(ptr nonnull @3, i32 %11, ptr nonnull @.gomp_critical_user_.var)
  %18 = icmp slt i32 %13, 0
  br i1 %18, label %45, label %19

19:                                               ; preds = %17
  %20 = sext i32 %3 to i64
  %21 = load ptr, ptr %4, align 8, !tbaa !191
  %22 = getelementptr inbounds nuw %struct.omp_lock_t, ptr %21, i64 %20
  tail call void @omp_set_lock(ptr noundef nonnull %22)
  %23 = getelementptr inbounds nuw i8, ptr %0, i64 5128
  %24 = load i32, ptr %23, align 8, !tbaa !45
  call void @llvm.lifetime.start.p0(i64 4, ptr nonnull %9) #19
  %25 = zext nneg i32 %13 to i64
  %26 = load ptr, ptr %1, align 8, !tbaa !21
  %27 = getelementptr inbounds nuw i8, ptr %26, i64 8
  %28 = load ptr, ptr %27, align 8
  %29 = tail call noundef float %28(ptr noundef nonnull align 8 dereferenceable(8) %1, i64 noundef %25)
  store float %29, ptr %9, align 4, !tbaa !127
  %30 = icmp sgt i32 %24, %2
  br i1 %30, label %.lr.ph, label %.preheader

.preheader:                                       ; preds = %.lr.ph, %19
  %.0.lcssa = phi i32 [ %24, %19 ], [ %2, %.lr.ph ]
  %31 = icmp sgt i32 %.0.lcssa, -1
  br i1 %31, label %.lr.ph26, label %._crit_edge

.lr.ph26:                                         ; preds = %.preheader
  %32 = load i32, ptr %8, align 4, !tbaa !19
  %33 = load float, ptr %9, align 4, !tbaa !127
  br label %36

.lr.ph:                                           ; preds = %19, %.lr.ph
  %.024 = phi i32 [ %34, %.lr.ph ], [ %24, %19 ]
  call void @llvm.lifetime.start.p0(i64 32, ptr nonnull %10) #19
  call void @_ZN5faiss21greedy_update_nearestERKNS_4HNSWERNS_16DistanceComputerEiRiRf(ptr dead_on_unwind nonnull writable sret(%"struct.faiss::HNSWStats") align 8 %10, ptr noundef nonnull align 8 dereferenceable(5142) %0, ptr noundef nonnull align 8 dereferenceable(8) %1, i32 noundef %.024, ptr noundef nonnull align 4 dereferenceable(4) %8, ptr noundef nonnull align 4 dereferenceable(4) %9)
  call void @llvm.lifetime.end.p0(i64 32, ptr nonnull %10) #19
  %34 = add nsw i32 %.024, -1
  %35 = icmp sgt i32 %34, %2
  br i1 %35, label %.lr.ph, label %.preheader, !llvm.loop !194

36:                                               ; preds = %.lr.ph26, %36
  %.125 = phi i32 [ %.0.lcssa, %.lr.ph26 ], [ %38, %36 ]
  %37 = load ptr, ptr %4, align 8, !tbaa !191
  tail call void @_ZN5faiss4HNSW23add_links_starting_fromERNS_16DistanceComputerEiifiP10omp_lock_tRNS_12VisitedTableEb(ptr noundef nonnull align 8 dereferenceable(5142) %0, ptr noundef nonnull align 8 dereferenceable(8) %1, i32 noundef %3, i32 noundef %32, float noundef %33, i32 noundef %.125, ptr noundef %37, ptr noundef nonnull align 8 dereferenceable(25) %5, i1 noundef zeroext %6)
  %38 = add nsw i32 %.125, -1
  %.not = icmp eq i32 %.125, 0
  br i1 %.not, label %._crit_edge, label %36, !llvm.loop !195

._crit_edge:                                      ; preds = %36, %.preheader
  %39 = load ptr, ptr %4, align 8, !tbaa !191
  %40 = getelementptr inbounds nuw %struct.omp_lock_t, ptr %39, i64 %20
  tail call void @omp_unset_lock(ptr noundef nonnull %40)
  %41 = load i32, ptr %23, align 8, !tbaa !45
  %42 = icmp sgt i32 %2, %41
  br i1 %42, label %43, label %44

43:                                               ; preds = %._crit_edge
  store i32 %2, ptr %23, align 8, !tbaa !45
  store i32 %3, ptr %12, align 8, !tbaa !29
  br label %44

44:                                               ; preds = %43, %._crit_edge
  call void @llvm.lifetime.end.p0(i64 4, ptr nonnull %9) #19
  br label %45

45:                                               ; preds = %17, %44
  call void @llvm.lifetime.end.p0(i64 4, ptr nonnull %8) #19
  ret void
}